; Function Attrs: mustprogress nounwind uwtable
define hidden void @_ZN4LIEF5MachO8TrieNodeD2Ev(ptr noundef nonnull align 8 dereferenceable(118) %0) unnamed_addr #1 align 2 personality ptr @__gxx_personality_v0 {
  %2 = getelementptr inbounds i8, ptr %0, i64 80
  tail call void @_ZNSt7__cxx1112basic_stringIcSt11char_traitsIcESaIcEED1Ev(ptr noundef nonnull align 8 dereferenceable(32) %2) #19
  %3 = getelementptr inbounds i8, ptr %0, i64 32
  %4 = load ptr, ptr %3, align 8
  %5 = getelementptr inbounds i8, ptr %0, i64 40
  %6 = load ptr, ptr %5, align 8
  %.not4.i.i.i.i = icmp eq ptr %4, %6
  br i1 %.not4.i.i.i.i, label %_ZSt8_DestroyIPSt10unique_ptrIN4LIEF5MachO8TrieEdgeESt14default_deleteIS3_EES6_EvT_S8_RSaIT0_E.exit.i, label %.lr.ph.i.i.i.i

.lr.ph.i.i.i.i:                                   ; preds = %1, %_ZSt8_DestroyISt10unique_ptrIN4LIEF5MachO8TrieEdgeESt14default_deleteIS3_EEEvPT_.exit.i.i.i.i
  %.05.i.i.i.i = phi ptr [ %8, %_ZSt8_DestroyISt10unique_ptrIN4LIEF5MachO8TrieEdgeESt14default_deleteIS3_EEEvPT_.exit.i.i.i.i ], [ %4, %1 ]
  %7 = load ptr, ptr %.05.i.i.i.i, align 8
  %.not.i.i.i.i.i.i = icmp eq ptr %7, null
  br i1 %.not.i.i.i.i.i.i, label %_ZSt8_DestroyISt10unique_ptrIN4LIEF5MachO8TrieEdgeESt14default_deleteIS3_EEEvPT_.exit.i.i.i.i, label %_ZNKSt14default_deleteIN4LIEF5MachO8TrieEdgeEEclEPS2_.exit.i.i.i.i.i.i

_ZNKSt14default_deleteIN4LIEF5MachO8TrieEdgeEEclEPS2_.exit.i.i.i.i.i.i: ; preds = %.lr.ph.i.i.i.i
  tail call void @_ZNSt7__cxx1112basic_stringIcSt11char_traitsIcESaIcEED1Ev(ptr noundef nonnull align 8 dereferenceable(32) %7) #19
  tail call void @_ZdlPv(ptr noundef nonnull %7) #20
  br label %_ZSt8_DestroyISt10unique_ptrIN4LIEF5MachO8TrieEdgeESt14default_deleteIS3_EEEvPT_.exit.i.i.i.i

_ZSt8_DestroyISt10unique_ptrIN4LIEF5MachO8TrieEdgeESt14default_deleteIS3_EEEvPT_.exit.i.i.i.i: ; preds = %_ZNKSt14default_deleteIN4LIEF5MachO8TrieEdgeEEclEPS2_.exit.i.i.i.i.i.i, %.lr.ph.i.i.i.i
  store ptr null, ptr %.05.i.i.i.i, align 8
  %8 = getelementptr inbounds i8, ptr %.05.i.i.i.i, i64 8
  %.not.i.i.i.i = icmp eq ptr %8, %6
  br i1 %.not.i.i.i.i, label %_ZSt8_DestroyIPSt10unique_ptrIN4LIEF5MachO8TrieEdgeESt14default_deleteIS3_EES6_EvT_S8_RSaIT0_E.exitthread-pre-split.i, label %.lr.ph.i.i.i.i, !llvm.loop !7

_ZSt8_DestroyIPSt10unique_ptrIN4LIEF5MachO8TrieEdgeESt14default_deleteIS3_EES6_EvT_S8_RSaIT0_E.exitthread-pre-split.i: ; preds = %_ZSt8_DestroyISt10unique_ptrIN4LIEF5MachO8TrieEdgeESt14default_deleteIS3_EEEvPT_.exit.i.i.i.i
  %.pr.i = load ptr, ptr %3, align 8
  br label %_ZSt8_DestroyIPSt10unique_ptrIN4LIEF5MachO8TrieEdgeESt14default_deleteIS3_EES6_EvT_S8_RSaIT0_E.exit.i

_ZSt8_DestroyIPSt10unique_ptrIN4LIEF5MachO8TrieEdgeESt14default_deleteIS3_EES6_EvT_S8_RSaIT0_E.exit.i: ; preds = %_ZSt8_DestroyIPSt10unique_ptrIN4LIEF5MachO8TrieEdgeESt14default_deleteIS3_EES6_EvT_S8_RSaIT0_E.exitthread-pre-split.i, %1
  %9 = phi ptr [ %.pr.i, %_ZSt8_DestroyIPSt10unique_ptrIN4LIEF5MachO8TrieEdgeESt14default_deleteIS3_EES6_EvT_S8_RSaIT0_E.exitthread-pre-split.i ], [ %4, %1 ]
  %.not.i.i.i = icmp eq ptr %9, null
  br i1 %.not.i.i.i, label %_ZNSt6vectorISt10unique_ptrIN4LIEF5MachO8TrieEdgeESt14default_deleteIS3_EESaIS6_EED2Ev.exit, label %10

10:                                               ; preds = %_ZSt8_DestroyIPSt10unique_ptrIN4LIEF5MachO8TrieEdgeESt14default_deleteIS3_EES6_EvT_S8_RSaIT0_E.exit.i
  tail call void @_ZdlPv(ptr noundef nonnull %9) #20
  br label %_ZNSt6vectorISt10unique_ptrIN4LIEF5MachO8TrieEdgeESt14default_deleteIS3_EESaIS6_EED2Ev.exit

_ZNSt6vectorISt10unique_ptrIN4LIEF5MachO8TrieEdgeESt14default_deleteIS3_EESaIS6_EED2Ev.exit: ; preds = %_ZSt8_DestroyIPSt10unique_ptrIN4LIEF5MachO8TrieEdgeESt14default_deleteIS3_EES6_EvT_S8_RSaIT0_E.exit.i, %10
  tail call void @_ZNSt7__cxx1112basic_stringIcSt11char_traitsIcESaIcEED1Ev(ptr noundef nonnull align 8 dereferenceable(32) %0) #19
  ret void
}